target datalayout = "e-m:e-p270:32:32-p271:32:32-p272:64:64-i64:64-i128:128-f80:128-n8:16:32:64-S128"
target triple = "x86_64-pc-linux-gnu"

%"class.nanogui::Button" = type { %"class.nanogui::Widget.base", %"class.std::__cxx11::basic_string", i32, i32, i8, i32, %"class.nanogui::Color", %"class.nanogui::Color", %"class.std::function", %"class.std::function.5", %"class.std::vector.7" }
%"class.nanogui::Widget.base" = type <{ %"class.nanogui::Object.base", [4 x i8], ptr, %"class.nanogui::ref", %"class.nanogui::ref.0", %"struct.nanogui::Array", %"struct.nanogui::Array", %"struct.nanogui::Array", %"class.std::vector", i8, i8, i8, i8, [4 x i8], %"class.std::__cxx11::basic_string", i32, float, i32 }>
%"class.nanogui::Object.base" = type <{ ptr, %"struct.std::atomic" }>
%"struct.std::atomic" = type { %"struct.std::__atomic_base" }
%"struct.std::__atomic_base" = type { i32 }
%"class.nanogui::ref" = type { ptr }
%"class.nanogui::ref.0" = type { ptr }
%"struct.nanogui::Array" = type { [2 x i32] }
%"class.std::vector" = type { %"struct.std::_Vector_base" }
%"struct.std::_Vector_base" = type { %"struct.std::_Vector_base<nanogui::Widget *, std::allocator<nanogui::Widget *>>::_Vector_impl" }
%"struct.std::_Vector_base<nanogui::Widget *, std::allocator<nanogui::Widget *>>::_Vector_impl" = type { %"struct.std::_Vector_base<nanogui::Widget *, std::allocator<nanogui::Widget *>>::_Vector_impl_data" }
%"struct.std::_Vector_base<nanogui::Widget *, std::allocator<nanogui::Widget *>>::_Vector_impl_data" = type { ptr, ptr, ptr }
%"class.std::__cxx11::basic_string" = type { %"struct.std::__cxx11::basic_string<char>::_Alloc_hider", i64, %union.anon }
%"struct.std::__cxx11::basic_string<char>::_Alloc_hider" = type { ptr }
%union.anon = type { i64, [8 x i8] }
%"class.nanogui::Color" = type { %"struct.nanogui::Array.4" }
%"struct.nanogui::Array.4" = type { [4 x float] }
%"class.std::function" = type { %"class.std::_Function_base", ptr }
%"class.std::_Function_base" = type { %"union.std::_Any_data", ptr }
%"union.std::_Any_data" = type { %"union.std::_Nocopy_types" }
%"union.std::_Nocopy_types" = type { { i64, i64 } }
%"class.std::function.5" = type { %"class.std::_Function_base", ptr }
%"class.std::vector.7" = type { %"struct.std::_Vector_base.8" }
%"struct.std::_Vector_base.8" = type { %"struct.std::_Vector_base<nanogui::Button *, std::allocator<nanogui::Button *>>::_Vector_impl" }
%"struct.std::_Vector_base<nanogui::Button *, std::allocator<nanogui::Button *>>::_Vector_impl" = type { %"struct.std::_Vector_base<nanogui::Button *, std::allocator<nanogui::Button *>>::_Vector_impl_data" }
%"struct.std::_Vector_base<nanogui::Button *, std::allocator<nanogui::Button *>>::_Vector_impl_data" = type { ptr, ptr, ptr }
%"class.nanogui::Widget" = type <{ %"class.nanogui::Object.base", [4 x i8], ptr, %"class.nanogui::ref", %"class.nanogui::ref.0", %"struct.nanogui::Array", %"struct.nanogui::Array", %"struct.nanogui::Array", %"class.std::vector", i8, i8, i8, i8, [4 x i8], %"class.std::__cxx11::basic_string", i32, float, i32, [4 x i8] }>
%"class.nanogui::Theme" = type { %"class.nanogui::Object.base", i32, i32, i32, i32, float, i32, i32, i32, i32, i32, i32, i32, float, i32, i32, i32, i32, i32, i32, %"class.nanogui::Color", %"class.nanogui::Color", %"class.nanogui::Color", %"class.nanogui::Color", %"class.nanogui::Color", %"class.nanogui::Color", %"class.nanogui::Color", %"class.nanogui::Color", %"class.nanogui::Color", %"class.nanogui::Color", %"class.nanogui::Color", %"class.nanogui::Color", %"class.nanogui::Color", %"class.nanogui::Color", %"class.nanogui::Color", %"class.nanogui::Color", %"class.nanogui::Color", %"class.nanogui::Color", %"class.nanogui::Color", %"class.nanogui::Color", %"class.nanogui::Color", %"class.nanogui::Color", %"class.nanogui::Color", %"class.nanogui::Color", %"class.nanogui::Color", i32, i32, i32, i32, i32, i32, i32, i32, i32, i32 }

@.str = private unnamed_addr constant [10 x i8] c"sans-bold\00", align 1
@.str.1 = private unnamed_addr constant [6 x i8] c"icons\00", align 1

; Function Attrs: mustprogress nounwind uwtable
define linkonce_odr hidden void @_ZN7nanogui5ArrayIiLm2EEC2ILm2ETnNSt9enable_ifIXeqT_Li2EEiE4typeELi0EEEii(ptr noundef nonnull align 4 dereferenceable(8) %0, i32 noundef %1, i32 noundef %2) unnamed_addr #2 comdat align 2 {
  %4 = alloca ptr, align 8
  %5 = alloca i32, align 4
  %6 = alloca i32, align 4
  store ptr %0, ptr %4, align 8
  store i32 %1, ptr %5, align 4
  store i32 %2, ptr %6, align 4
  %7 = load ptr, ptr %4, align 8
  %8 = load i32, ptr %5, align 4
  %9 = getelementptr inbounds %"struct.nanogui::Array", ptr %7, i32 0, i32 0
  %10 = getelementptr inbounds [2 x i32], ptr %9, i64 0, i64 0
  store i32 %8, ptr %10, align 4
  %11 = load i32, ptr %6, align 4
  %12 = getelementptr inbounds %"struct.nanogui::Array", ptr %7, i32 0, i32 0
  %13 = getelementptr inbounds [2 x i32], ptr %12, i64 0, i64 1
  store i32 %11, ptr %13, align 4
  ret void
}

; Function Attrs: mustprogress nounwind uwtable
define linkonce_odr hidden noundef nonnull align 4 dereferenceable(4) ptr @_ZNK7nanogui5ArrayIiLm2EE1yILm2ETnNSt9enable_ifIXgeT_Li2EEiE4typeELi0EEERKiv(ptr noundef nonnull align 4 dereferenceable(8) %0) #2 comdat align 2 {
  %2 = alloca ptr, align 8
  store ptr %0, ptr %2, align 8
  %3 = load ptr, ptr %2, align 8
  %4 = getelementptr inbounds %"struct.nanogui::Array", ptr %3, i32 0, i32 0
  %5 = getelementptr inbounds [2 x i32], ptr %4, i64 0, i64 1
  ret ptr %5
}

; Function Attrs: mustprogress uwtable
define linkonce_odr hidden noundef float @_ZNK7nanogui6Widget10icon_scaleEv(ptr noundef nonnull align 8 dereferenceable(140) %0) #0 comdat align 2 {
  %2 = alloca ptr, align 8
  store ptr %0, ptr %2, align 8
  %3 = load ptr, ptr %2, align 8
  %4 = getelementptr inbounds %"class.nanogui::Widget", ptr %3, i32 0, i32 3
  %5 = call noundef ptr @_ZNK7nanogui3refINS_5ThemeEEptEv(ptr noundef nonnull align 8 dereferenceable(8) %4)
  %6 = getelementptr inbounds %"class.nanogui::Theme", ptr %5, i32 0, i32 5
  %7 = load float, ptr %6, align 4
  %8 = getelementptr inbounds %"class.nanogui::Widget", ptr %3, i32 0, i32 16
  %9 = load float, ptr %8, align 4
  %10 = fmul float %7, %9
  ret float %10
}

; Function Attrs: mustprogress nounwind uwtable
define linkonce_odr hidden noundef zeroext i1 @_ZN7nanogui16nvg_is_font_iconEi(i32 noundef %0) #2 comdat {
  %2 = alloca i32, align 4
  store i32 %0, ptr %2, align 4
  %3 = load i32, ptr %2, align 4
  %4 = icmp sge i32 %3, 1024
  ret i1 %4
}

; Function Attrs: mustprogress nounwind uwtable
define linkonce_odr hidden noundef ptr @_ZNK7nanogui3refINS_5ThemeEEptEv(ptr noundef nonnull align 8 dereferenceable(8) %0) #2 comdat align 2 {
  %2 = alloca ptr, align 8
  store ptr %0, ptr %2, align 8
  %3 = load ptr, ptr %2, align 8
  %4 = getelementptr inbounds %"class.nanogui::ref", ptr %3, i32 0, i32 0
  %5 = load ptr, ptr %4, align 8
  ret ptr %5
}

; Function Attrs: mustprogress uwtable
define hidden i64 @_ZNK7nanogui6Button14preferred_sizeEP10NVGcontext(ptr noundef nonnull align 8 dereferenceable(312) %0, ptr noundef %1) unnamed_addr #0 align 2 personality ptr @__gxx_personality_v0 {
  %3 = alloca %"struct.nanogui::Array", align 4
  %4 = alloca ptr, align 8
  %5 = alloca ptr, align 8
  %6 = alloca i32, align 4
  %7 = alloca float, align 4
  %8 = alloca float, align 4
  %9 = alloca float, align 4
  %10 = alloca %"class.std::__cxx11::basic_string", align 8
  %11 = alloca ptr, align 8
  %12 = alloca i32, align 4
  %13 = alloca i32, align 4
  %14 = alloca i32, align 4
  store ptr %0, ptr %4, align 8
  store ptr %1, ptr %5, align 8
  %15 = load ptr, ptr %4, align 8
  %16 = getelementptr inbounds %"class.nanogui::Widget", ptr %15, i32 0, i32 15
  %17 = load i32, ptr %16, align 8
  %18 = icmp eq i32 %17, -1
  br i1 %18, label %19, label %24

19:                                               ; preds = %2
  %20 = getelementptr inbounds %"class.nanogui::Widget", ptr %15, i32 0, i32 3
  %21 = call noundef ptr @_ZNK7nanogui3refINS_5ThemeEEptEv(ptr noundef nonnull align 8 dereferenceable(8) %20)
  %22 = getelementptr inbounds %"class.nanogui::Theme", ptr %21, i32 0, i32 7
  %23 = load i32, ptr %22, align 4
  br label %27

24:                                               ; preds = %2
  %25 = getelementptr inbounds %"class.nanogui::Widget", ptr %15, i32 0, i32 15
  %26 = load i32, ptr %25, align 8
  br label %27

27:                                               ; preds = %24, %19
  %28 = phi i32 [ %23, %19 ], [ %26, %24 ]
  store i32 %28, ptr %6, align 4
  %29 = load ptr, ptr %5, align 8
  %30 = load i32, ptr %6, align 4
  %31 = sitofp i32 %30 to float
  call void @nvgFontSize(ptr noundef %29, float noundef %31)
  %32 = load ptr, ptr %5, align 8
  call void @nvgFontFace(ptr noundef %32, ptr noundef @.str)
  %33 = load ptr, ptr %5, align 8
  %34 = getelementptr inbounds %"class.nanogui::Button", ptr %15, i32 0, i32 1
  %35 = call noundef ptr @_ZNKSt7__cxx1112basic_stringIcSt11char_traitsIcESaIcEE5c_strEv(ptr noundef nonnull align 8 dereferenceable(32) %34) #12
  %36 = call float @nvgTextBounds(ptr noundef %33, float noundef 0.000000e+00, float noundef 0.000000e+00, ptr noundef %35, ptr noundef null, ptr noundef null)
  store float %36, ptr %7, align 4
  store float 0.000000e+00, ptr %8, align 4
  %37 = load i32, ptr %6, align 4
  %38 = sitofp i32 %37 to float
  store float %38, ptr %9, align 4
  %39 = getelementptr inbounds %"class.nanogui::Button", ptr %15, i32 0, i32 2
  %40 = load i32, ptr %39, align 8
  %41 = icmp ne i32 %40, 0
  br i1 %41, label %42, label %83

42:                                               ; preds = %27
  %43 = getelementptr inbounds %"class.nanogui::Button", ptr %15, i32 0, i32 2
  %44 = load i32, ptr %43, align 8
  %45 = call noundef zeroext i1 @_ZN7nanogui16nvg_is_font_iconEi(i32 noundef %44)
  br i1 %45, label %46, label %69

46:                                               ; preds = %42
  %47 = call noundef float @_ZNK7nanogui6Widget10icon_scaleEv(ptr noundef nonnull align 8 dereferenceable(140) %15)
  %48 = load float, ptr %9, align 4
  %49 = fmul float %48, %47
  store float %49, ptr %9, align 4
  %50 = load ptr, ptr %5, align 8
  call void @nvgFontFace(ptr noundef %50, ptr noundef @.str.1)
  %51 = load ptr, ptr %5, align 8
  %52 = load float, ptr %9, align 4
  call void @nvgFontSize(ptr noundef %51, float noundef %52)
  %53 = load ptr, ptr %5, align 8
  %54 = getelementptr inbounds %"class.nanogui::Button", ptr %15, i32 0, i32 2
  %55 = load i32, ptr %54, align 8
  call void @_ZN7nanogui4utf8B5cxx11Ej(ptr dead_on_unwind writable sret(%"class.std::__cxx11::basic_string") align 8 %10, i32 noundef %55)
  %56 = call noundef ptr @_ZNSt7__cxx1112basic_stringIcSt11char_traitsIcESaIcEE4dataEv(ptr noundef nonnull align 8 dereferenceable(32) %10) #12
  %57 = invoke float @nvgTextBounds(ptr noundef %53, float noundef 0.000000e+00, float noundef 0.000000e+00, ptr noundef %56, ptr noundef null, ptr noundef null)
          to label %58 unwind label %65

58:                                               ; preds = %46
  %59 = getelementptr inbounds %"class.nanogui::Widget", ptr %15, i32 0, i32 6
  %60 = invoke noundef nonnull align 4 dereferenceable(4) ptr @_ZNK7nanogui5ArrayIiLm2EE1yILm2ETnNSt9enable_ifIXgeT_Li2EEiE4typeELi0EEERKiv(ptr noundef nonnull align 4 dereferenceable(8) %59)
          to label %61 unwind label %65

61:                                               ; preds = %58
  %62 = load i32, ptr %60, align 4
  %63 = sitofp i32 %62 to float
  %64 = call float @llvm.fmuladd.f32(float %63, float 0x3FC3333340000000, float %57)
  store float %64, ptr %8, align 4
  call void @_ZNSt7__cxx1112basic_stringIcSt11char_traitsIcESaIcEED1Ev(ptr noundef nonnull align 8 dereferenceable(32) %10) #12
  br label %82

65:                                               ; preds = %58, %46
  %66 = landingpad { ptr, i32 }
          cleanup
  %67 = extractvalue { ptr, i32 } %66, 0
  store ptr %67, ptr %11, align 8
  %68 = extractvalue { ptr, i32 } %66, 1
  store i32 %68, ptr %12, align 4
  call void @_ZNSt7__cxx1112basic_stringIcSt11char_traitsIcESaIcEED1Ev(ptr noundef nonnull align 8 dereferenceable(32) %10) #12
  br label %93

69:                                               ; preds = %42
  %70 = load float, ptr %9, align 4
  %71 = fmul float %70, 0x3FECCCCCC0000000
  store float %71, ptr %9, align 4
  %72 = load ptr, ptr %5, align 8
  %73 = getelementptr inbounds %"class.nanogui::Button", ptr %15, i32 0, i32 2
  %74 = load i32, ptr %73, align 8
  call void @nvgImageSize(ptr noundef %72, i32 noundef %74, ptr noundef %13, ptr noundef %14)
  %75 = load i32, ptr %13, align 4
  %76 = sitofp i32 %75 to float
  %77 = load float, ptr %9, align 4
  %78 = fmul float %76, %77
  %79 = load i32, ptr %14, align 4
  %80 = sitofp i32 %79 to float
  %81 = fdiv float %78, %80
  store float %81, ptr %8, align 4
  br label %82

82:                                               ; preds = %69, %61
  br label %83

83:                                               ; preds = %82, %27
  %84 = load float, ptr %7, align 4
  %85 = load float, ptr %8, align 4
  %86 = fadd float %84, %85
  %87 = fptosi float %86 to i32
  %88 = add nsw i32 %87, 20
  %89 = load i32, ptr %6, align 4
  %90 = add nsw i32 %89, 10
  call void @_ZN7nanogui5ArrayIiLm2EEC2ILm2ETnNSt9enable_ifIXeqT_Li2EEiE4typeELi0EEEii(ptr noundef nonnull align 4 dereferenceable(8) %3, i32 noundef %88, i32 noundef %90)
  %91 = getelementptr inbounds %"struct.nanogui::Array", ptr %3, i32 0, i32 0
  %92 = load i64, ptr %91, align 4
  ret i64 %92

93:                                               ; preds = %65
  %94 = load ptr, ptr %11, align 8
  %95 = load i32, ptr %12, align 4
  %96 = insertvalue { ptr, i32 } poison, ptr %94, 0
  %97 = insertvalue { ptr, i32 } %96, i32 %95, 1
  resume { ptr, i32 } %97
}