; Function Attrs: mustprogress uwtable
define hidden i64 @_ZNK7nanogui6Button14preferred_sizeEP10NVGcontext(ptr noundef nonnull align 8 dereferenceable(312) %0, ptr noundef %1) unnamed_addr #3 align 2 personality ptr @__gxx_personality_v0 {
  %3 = alloca %"class.std::__cxx11::basic_string", align 8
  %4 = alloca i32, align 4
  %5 = alloca i32, align 4
  %6 = getelementptr inbounds i8, ptr %0, i64 128
  %7 = load i32, ptr %6, align 8
  %8 = icmp eq i32 %7, -1
  br i1 %8, label %9, label %14

9:                                                ; preds = %2
  %10 = getelementptr inbounds i8, ptr %0, i64 24
  %11 = load ptr, ptr %10, align 8
  %12 = getelementptr inbounds i8, ptr %11, i64 36
  %13 = load i32, ptr %12, align 4
  br label %14

14:                                               ; preds = %2, %9
  %15 = phi i32 [ %13, %9 ], [ %7, %2 ]
  %16 = sitofp i32 %15 to float
  tail call void @nvgFontSize(ptr noundef %1, float noundef %16)
  tail call void @nvgFontFace(ptr noundef %1, ptr noundef nonnull @.str)
  %17 = getelementptr inbounds i8, ptr %0, i64 144
  %18 = tail call noundef ptr @_ZNKSt7__cxx1112basic_stringIcSt11char_traitsIcESaIcEE5c_strEv(ptr noundef nonnull align 8 dereferenceable(32) %17) #11
  %19 = tail call float @nvgTextBounds(ptr noundef %1, float noundef 0.000000e+00, float noundef 0.000000e+00, ptr noundef %18, ptr noundef null, ptr noundef null)
  %20 = getelementptr inbounds i8, ptr %0, i64 176
  %21 = load i32, ptr %20, align 8
  %.not = icmp eq i32 %21, 0
  br i1 %.not, label %51, label %22

22:                                               ; preds = %14
  %23 = icmp sgt i32 %21, 1023
  br i1 %23, label %24, label %43

24:                                               ; preds = %22
  %25 = getelementptr inbounds i8, ptr %0, i64 24
  %26 = load ptr, ptr %25, align 8
  %27 = getelementptr inbounds i8, ptr %26, i64 28
  %28 = load float, ptr %27, align 4
  %29 = getelementptr inbounds i8, ptr %0, i64 132
  %30 = load float, ptr %29, align 4
  %31 = fmul float %28, %30
  %32 = fmul float %31, %16
  tail call void @nvgFontFace(ptr noundef %1, ptr noundef nonnull @.str.1)
  tail call void @nvgFontSize(ptr noundef %1, float noundef %32)
  %33 = load i32, ptr %20, align 8
  call void @_ZN7nanogui4utf8B5cxx11Ej(ptr dead_on_unwind nonnull writable sret(%"class.std::__cxx11::basic_string") align 8 %3, i32 noundef %33)
  %34 = call noundef ptr @_ZNSt7__cxx1112basic_stringIcSt11char_traitsIcESaIcEE4dataEv(ptr noundef nonnull align 8 dereferenceable(32) %3) #11
  %35 = invoke float @nvgTextBounds(ptr noundef %1, float noundef 0.000000e+00, float noundef 0.000000e+00, ptr noundef %34, ptr noundef null, ptr noundef null)
          to label %36 unwind label %41

36:                                               ; preds = %24
  %37 = getelementptr inbounds i8, ptr %0, i64 52
  %38 = load i32, ptr %37, align 4
  %39 = sitofp i32 %38 to float
  %40 = call float @llvm.fmuladd.f32(float %39, float 0x3FC3333340000000, float %35)
  call void @_ZNSt7__cxx1112basic_stringIcSt11char_traitsIcESaIcEED1Ev(ptr noundef nonnull align 8 dereferenceable(32) %3) #11
  br label %51

41:                                               ; preds = %24
  %42 = landingpad { ptr, i32 }
          cleanup
  call void @_ZNSt7__cxx1112basic_stringIcSt11char_traitsIcESaIcEED1Ev(ptr noundef nonnull align 8 dereferenceable(32) %3) #11
  resume { ptr, i32 } %42

43:                                               ; preds = %22
  %44 = fmul float %16, 0x3FECCCCCC0000000
  call void @nvgImageSize(ptr noundef %1, i32 noundef %21, ptr noundef nonnull %4, ptr noundef nonnull %5)
  %45 = load i32, ptr %4, align 4
  %46 = sitofp i32 %45 to float
  %47 = fmul float %44, %46
  %48 = load i32, ptr %5, align 4
  %49 = sitofp i32 %48 to float
  %50 = fdiv float %47, %49
  br label %51

51:                                               ; preds = %36, %43, %14
  %.0 = phi float [ %40, %36 ], [ %50, %43 ], [ 0.000000e+00, %14 ]
  %52 = fadd float %19, %.0
  %53 = fptosi float %52 to i32
  %54 = add nsw i32 %53, 20
  %55 = add nsw i32 %15, 10
  %.sroa.2.0.insert.ext = zext i32 %55 to i64
  %.sroa.2.0.insert.shift = shl nuw i64 %.sroa.2.0.insert.ext, 32
  %.sroa.0.0.insert.ext = zext i32 %54 to i64
  %.sroa.0.0.insert.insert = or disjoint i64 %.sroa.2.0.insert.shift, %.sroa.0.0.insert.ext
  ret i64 %.sroa.0.0.insert.insert
}